target datalayout = "e-m:e-p270:32:32-p271:32:32-p272:64:64-i64:64-i128:128-f80:128-n8:16:32:64-S128"
target triple = "x86_64-pc-linux-gnu"

%"class.llvm::NoopStatistic" = type { i8 }

@_ZL10NumNoUndef = internal global %"class.llvm::NoopStatistic" zeroinitializer, align 1

; Function Attrs: mustprogress nounwind uwtable
define linkonce_odr hidden noundef nonnull align 1 dereferenceable(1) ptr @_ZN4llvm13NoopStatisticppEv(ptr noundef nonnull align 1 dereferenceable(1) %0) #1 comdat align 2 {
  %2 = alloca ptr, align 8
  store ptr %0, ptr %2, align 8
  %3 = load ptr, ptr %2, align 8
  ret ptr %3
}

; Function Attrs: mustprogress nounwind uwtable
define internal noundef zeroext i1 @_ZL13setArgNoUndefRN4llvm8FunctionEj(ptr noundef nonnull align 8 dereferenceable(136) %0, i32 noundef %1) #1 {
  %3 = alloca i1, align 1
  %4 = alloca ptr, align 8
  %5 = alloca i32, align 4
  store ptr %0, ptr %4, align 8
  store i32 %1, ptr %5, align 4
  %6 = load ptr, ptr %4, align 8
  %7 = load i32, ptr %5, align 4
  %8 = call noundef zeroext i1 @_ZNK4llvm8Function17hasParamAttributeEjNS_9Attribute8AttrKindE(ptr noundef nonnull align 8 dereferenceable(136) %6, i32 noundef %7, i32 noundef 38)
  br i1 %8, label %9, label %10

9:                                                ; preds = %2
  store i1 false, ptr %3, align 1
  br label %14

10:                                               ; preds = %2
  %11 = load ptr, ptr %4, align 8
  %12 = load i32, ptr %5, align 4
  call void @_ZN4llvm8Function12addParamAttrEjNS_9Attribute8AttrKindE(ptr noundef nonnull align 8 dereferenceable(136) %11, i32 noundef %12, i32 noundef 38)
  %13 = call noundef nonnull align 1 dereferenceable(1) ptr @_ZN4llvm13NoopStatisticppEv(ptr noundef nonnull align 1 dereferenceable(1) @_ZL10NumNoUndef)
  store i1 true, ptr %3, align 1
  br label %14

14:                                               ; preds = %10, %9
  %15 = load i1, ptr %3, align 1
  ret i1 %15
}